target datalayout = "e-m:e-p270:32:32-p271:32:32-p272:64:64-i64:64-i128:128-f80:128-n8:16:32:64-S128"
target triple = "x86_64-pc-linux-gnu"

%struct.lua_State = type { %struct.GCRef, i8, i8, i8, i8, %struct.MRef, %struct.GCRef, ptr, ptr, %struct.MRef, %struct.MRef, %struct.GCRef, %struct.GCRef, ptr, i32 }
%struct.MRef = type { i64 }
%struct.GCRef = type { i64 }
%union.TValue = type { i64 }
%struct.GCstr = type { %struct.GCRef, i8, i8, i8, i8, i32, i32, i32 }

@.str.3 = private unnamed_addr constant [23 x i8] c"copy of dead GC object\00", align 1

; Function Attrs: alwaysinline nounwind uwtable
define internal void @checklivetv(ptr noundef %0, ptr noundef %1, ptr noundef %2) #1 {
  %4 = alloca ptr, align 8
  %5 = alloca ptr, align 8
  %6 = alloca ptr, align 8
  store ptr %0, ptr %4, align 8, !tbaa !4
  store ptr %1, ptr %5, align 8, !tbaa !17
  store ptr %2, ptr %6, align 8, !tbaa !25
  ret void
}

; Function Attrs: alwaysinline nounwind uwtable
define internal void @copyTV(ptr noundef %0, ptr noundef %1, ptr noundef %2) #1 {
  %4 = alloca ptr, align 8
  %5 = alloca ptr, align 8
  %6 = alloca ptr, align 8
  store ptr %0, ptr %4, align 8, !tbaa !4
  store ptr %1, ptr %5, align 8, !tbaa !17
  store ptr %2, ptr %6, align 8, !tbaa !17
  %7 = load ptr, ptr %5, align 8, !tbaa !17
  %8 = load ptr, ptr %6, align 8, !tbaa !17
  call void @llvm.memcpy.p0.p0.i64(ptr align 8 %7, ptr align 8 %8, i64 8, i1 false), !tbaa.struct !18
  %9 = load ptr, ptr %4, align 8, !tbaa !4
  %10 = load ptr, ptr %5, align 8, !tbaa !17
  call void @checklivetv(ptr noundef %9, ptr noundef %10, ptr noundef @.str.3)
  ret void
}

; Function Attrs: noreturn nounwind uwtable
define hidden void @lj_ffh_coroutine_wrap_err(ptr noundef %0, ptr noundef %1) #0 {
  %3 = alloca ptr, align 8
  %4 = alloca ptr, align 8
  store ptr %0, ptr %3, align 8, !tbaa !4
  store ptr %1, ptr %4, align 8, !tbaa !4
  %5 = load ptr, ptr %4, align 8, !tbaa !4
  %6 = getelementptr inbounds nuw %struct.lua_State, ptr %5, i32 0, i32 8
  %7 = load ptr, ptr %6, align 8, !tbaa !9
  %8 = getelementptr inbounds %union.TValue, ptr %7, i32 -1
  store ptr %8, ptr %6, align 8, !tbaa !9
  %9 = load ptr, ptr %3, align 8, !tbaa !4
  %10 = load ptr, ptr %3, align 8, !tbaa !4
  %11 = getelementptr inbounds nuw %struct.lua_State, ptr %10, i32 0, i32 8
  %12 = load ptr, ptr %11, align 8, !tbaa !9
  %13 = load ptr, ptr %4, align 8, !tbaa !4
  %14 = getelementptr inbounds nuw %struct.lua_State, ptr %13, i32 0, i32 8
  %15 = load ptr, ptr %14, align 8, !tbaa !9
  call void @copyTV(ptr noundef %9, ptr noundef %12, ptr noundef %15)
  %16 = load ptr, ptr %3, align 8, !tbaa !4
  %17 = getelementptr inbounds nuw %struct.lua_State, ptr %16, i32 0, i32 8
  %18 = load ptr, ptr %17, align 8, !tbaa !9
  %19 = getelementptr inbounds nuw %union.TValue, ptr %18, i32 1
  store ptr %19, ptr %17, align 8, !tbaa !9
  %20 = load ptr, ptr %3, align 8, !tbaa !4
  %21 = getelementptr inbounds nuw %struct.lua_State, ptr %20, i32 0, i32 8
  %22 = load ptr, ptr %21, align 8, !tbaa !9
  %23 = getelementptr inbounds %union.TValue, ptr %22, i64 -1
  %24 = load i64, ptr %23, align 8, !tbaa !16
  %25 = ashr i64 %24, 47
  %26 = trunc i64 %25 to i32
  %27 = icmp eq i32 %26, -5
  br i1 %27, label %28, label %39

28:                                               ; preds = %2
  %29 = load ptr, ptr %3, align 8, !tbaa !4
  %30 = load ptr, ptr %3, align 8, !tbaa !4
  %31 = getelementptr inbounds nuw %struct.lua_State, ptr %30, i32 0, i32 8
  %32 = load ptr, ptr %31, align 8, !tbaa !9
  %33 = getelementptr inbounds %union.TValue, ptr %32, i64 -1
  %34 = getelementptr inbounds nuw %struct.GCRef, ptr %33, i32 0, i32 0
  %35 = load i64, ptr %34, align 8, !tbaa !16
  %36 = and i64 %35, 140737488355327
  %37 = inttoptr i64 %36 to ptr
  %38 = getelementptr inbounds %struct.GCstr, ptr %37, i64 1
  call void @lj_err_callermsg(ptr noundef %29, ptr noundef %38) #10
  unreachable

39:                                               ; preds = %2
  %40 = load ptr, ptr %3, align 8, !tbaa !4
  call void @lj_err_run(ptr noundef %40) #10
  unreachable
}