; Function Attrs: noreturn nounwind uwtable
define hidden void @lj_ffh_coroutine_wrap_err(ptr noundef %0, ptr noundef captures(none) %1) local_unnamed_addr #0 {
  %3 = getelementptr inbounds nuw i8, ptr %1, i64 40
  %4 = load ptr, ptr %3, align 8, !tbaa !4
  %5 = getelementptr inbounds i8, ptr %4, i64 -8
  store ptr %5, ptr %3, align 8, !tbaa !4
  %6 = getelementptr inbounds nuw i8, ptr %0, i64 40
  %7 = load ptr, ptr %6, align 8, !tbaa !4
  %8 = load i64, ptr %5, align 8, !tbaa !14
  store i64 %8, ptr %7, align 8, !tbaa !14
  %9 = load ptr, ptr %6, align 8, !tbaa !4
  %10 = getelementptr inbounds nuw i8, ptr %9, i64 8
  store ptr %10, ptr %6, align 8, !tbaa !4
  %11 = load i64, ptr %9, align 8, !tbaa !14
  %.mask = and i64 %11, -140737488355328
  %12 = icmp eq i64 %.mask, -703687441776640
  br i1 %12, label %13, label %17

13:                                               ; preds = %2
  %14 = and i64 %11, 140737488355327
  %15 = inttoptr i64 %14 to ptr
  %16 = getelementptr inbounds nuw i8, ptr %15, i64 24
  tail call void @lj_err_callermsg(ptr noundef nonnull %0, ptr noundef nonnull %16) #10
  unreachable

17:                                               ; preds = %2
  tail call void @lj_err_run(ptr noundef nonnull %0) #10
  unreachable
}